Certificate:
    Data:
        Version: 3 (0x2)
        Serial Number: 2 (0x2)
    Signature Algorithm: sha1WithRSAEncryption
        Issuer: C=KR, CN=gilgil
        Validity
            Not Before: Mar  1 00:00:00 2014 GMT
            Not After : Feb 27 00:00:00 2024 GMT
        Subject: C=KR, CN=test.com
        Subject Public Key Info:
            Public Key Algorithm: rsaEncryption
                Public-Key: (1024 bit)
                Modulus:
                    00:f3:66:8d:2d:22:5b:20:6d:e6:47:75:7b:c4:de:
                    05:2c:ed:39:8c:b2:16:7d:73:4c:a5:30:3c:b6:62:
                    41:72:f0:8e:e5:33:b1:11:52:c9:43:d4:9a:3f:ce:
                    7f:5b:51:08:91:29:f9:e2:34:d1:31:77:82:18:5f:
                    77:65:2e:2f:e9:42:00:16:bd:8d:7d:f2:b4:15:88:
                    a7:85:d8:3c:a3:0b:cf:2d:ea:f6:74:ac:a2:fc:5b:
                    34:e6:73:2f:19:6f:be:ed:a3:6b:e3:f4:09:56:c7:
                    fa:d2:bb:7d:8d:16:22:18:fd:46:1b:8c:9b:82:12:
                    fe:30:24:46:96:0c:4b:3d:ed
                Exponent: 65537 (0x10001)
        X509v3 extensions:
            X509v3 Basic Constraints: 
                CA:FALSE
            Netscape Comment: 
                OpenSSL Generated Certificate
            X509v3 Subject Key Identifier: 
                FB:5E:F2:97:81:92:91:19:C9:F3:41:12:EA:0B:63:33:59:CA:D4:AA
            X509v3 Authority Key Identifier: 
                DirName:/C=KR/CN=gilgil
                serial:BC:FE:EF:E9:4A:BC:63:F0

    Signature Algorithm: sha1WithRSAEncryption
         2c:d1:04:ba:a9:75:2a:16:3c:9d:f1:7f:2f:ee:db:c2:ca:f8:
         aa:c5:25:53:10:30:ca:38:6e:ab:b5:40:c1:73:d4:ec:6f:1e:
         35:22:f8:ed:12:1e:99:10:51:e0:cc:48:3b:a5:39:f6:ce:33:
         d1:f2:eb:c2:6b:f0:66:1e:d9:aa:dc:a5:70:ad:bc:4c:0b:d6:
         af:b2:76:20:5f:4e:2f:6c:ba:33:86:6e:c0:3e:59:69:ec:11:
         5e:2f:d2:60:d3:5c:30:62:14:b5:c9:04:ea:28:e2:92:cc:31:
         35:e2:d5:f8:6c:b8:24:4a:79:e1:4b:71:a8:43:8e:3e:42:08:
         b1:fa
-----BEGIN CERTIFICATE-----
MIICTjCCAbegAwIBAgIBAjANBgkqhkiG9w0BAQUFADAeMQswCQYDVQQGEwJLUjEP
MA0GA1UEAwwGZ2lsZ2lsMCIYDzIwMTQwMzAxMDAwMDAwWhgPMjAyNDAyMjcwMDAw
MDBaMCAxCzAJBgNVBAYTAktSMREwDwYDVQQDDAh0ZXN0LmNvbTCBnzANBgkqhkiG
9w0BAQEFAAOBjQAwgYkCgYEA82aNLSJbIG3mR3V7xN4FLO05jLIWfXNMpTA8tmJB
cvCO5TOxEVLJQ9SaP85/W1EIkSn54jTRMXeCGF93ZS4v6UIAFr2NffK0FYinhdg8
owvPLer2dKyi/Fs05nMvGW++7aNr4/QJVsf60rt9jRYiGP1GG4ybghL+MCRGlgxL
Pe0CAwEAAaOBlTCBkjAJBgNVHRMEAjAAMCwGCWCGSAGG+EIBDQQfFh1PcGVuU1NM
IEdlbmVyYXRlZCBDZXJ0aWZpY2F0ZTAdBgNVHQ4EFgQU+17yl4GSkRnJ80ES6gtj
M1nK1KowOAYDVR0jBDEwL6EipCAwHjELMAkGA1UEBhMCS1IxDzANBgNVBAMMBmdp
bGdpbIIJALz+7+lKvGPwMA0GCSqGSIb3DQEBBQUAA4GBACzRBLqpdSoWPJ3xfy/u
28LK+KrFJVMQMMo4bqu1QMFz1OxvHjUi+O0SHpkQUeDMSDulOfbOM9Hy68Jr8GYe
2arcpXCtvEwL1q+ydiBfTi9sujOGbsA+WWnsEV4v0mDTXDBiFLXJBOoo4pLMMTXi
1fhsuCRKeeFLcahDjj5CCLH6
-----END CERTIFICATE-----
